; Function Attrs: mustprogress nounwind uwtable
define dso_local void @_ZN5clang14JSONNodeDumper31VisitExpressionTemplateArgumentERKNS_16TemplateArgumentE(ptr noundef nonnull align 8 dereferenceable(1312) %0, ptr nocapture noundef nonnull readnone align 8 dereferenceable(24) %1) local_unnamed_addr #0 align 2 {
  %3 = alloca %"class.llvm::json::Value", align 8
  %4 = getelementptr inbounds nuw i8, ptr %0, i64 1048
  store i16 1, ptr %3, align 8
  %5 = getelementptr inbounds nuw i8, ptr %3, i64 8
  store i8 1, ptr %5, align 8
  tail call void @_ZN4llvm4json7OStream14attributeBeginENS_9StringRefE(ptr noundef nonnull align 8 dereferenceable(176) %4, ptr nonnull @.str.774, i64 6) #20
  call void @_ZN4llvm4json7OStream5valueERKNS0_5ValueE(ptr noundef nonnull align 8 dereferenceable(176) %4, ptr noundef nonnull align 8 dereferenceable(40) %3) #20
  call void @_ZN4llvm4json7OStream12attributeEndEv(ptr noundef nonnull align 8 dereferenceable(176) %4) #20
  call void @_ZN4llvm4json5Value7destroyEv(ptr noundef nonnull align 8 dereferenceable(40) %3) #20
  ret void
}